   1              		.syntax unified
   2              		.cpu cortex-m3
   3              		.fpu softvfp
   4              		.eabi_attribute 20, 1
   5              		.eabi_attribute 21, 1
   6              		.eabi_attribute 23, 3
   7              		.eabi_attribute 24, 1
   8              		.eabi_attribute 25, 1
   9              		.eabi_attribute 26, 1
  10              		.eabi_attribute 30, 6
  11              		.eabi_attribute 18, 4
  12              		.thumb
  13              		.file	"main.c"
  23              	.Ltext0:
  24              		.file 1 "../main.c"
 1926              		.align	2
 1927              		.global	SSeg_Config
 1928              		.thumb
 1929              		.thumb_func
 1931              	SSeg_Config:
 1932              	.LFB29:
   1:../main.c     **** /**
   2:../main.c     ****  * \file  main.c
   3:../main.c     ****  * \brief  Teste de hardware do XM700
   4:../main.c     ****  * \author Marcelo Martins Maia do Couto
   5:../main.c     ****  * \version 1.0
   6:../main.c     ****  * \date  Inicio: 25/Ago/2010
   7:../main.c     ****  * \date  Final: 25/Ago/2010 
   8:../main.c     ****  * \todo 
   9:../main.c     ****  * \li Site: www.exsto.com.br
  10:../main.c     ****  * \li Email: marcelo@exsto.com.br
  11:../main.c     ****  *
  12:../main.c     ****  *  (Objetivo) Validar o funcionamento do módulo 7 Segment Display do Projeto XM700  
  13:../main.c     ****  */
  14:../main.c     **** 
  15:../main.c     **** #include "LPC17xx.h"
  16:../main.c     **** 
  17:../main.c     **** // Function to provide short delay
  18:../main.c     **** void short_delay (int n);
  19:../main.c     **** 
  20:../main.c     **** // Configurando os pinos que estão ligados aos leds
  21:../main.c     **** void SSeg_Config(void){
 1933              		.loc 1 21 0
 1934              		.cfi_startproc
 1935              		@ args = 0, pretend = 0, frame = 0
 1936              		@ frame_needed = 1, uses_anonymous_args = 0
 1937              		@ link register save eliminated.
 1938 0000 80B4     		push	{r7}
 1939              	.LCFI0:
 1940              		.cfi_def_cfa_offset 4
 1941 0002 00AF     		add	r7, sp, #0
 1942              		.cfi_offset 7, -4
 1943              	.LCFI1:
 1944              		.cfi_def_cfa_register 7
  22:../main.c     **** 
  23:../main.c     ****   LPC_GPIO0->FIODIR = 0x00000ff0;
 1945              		.loc 1 23 0
 1946 0004 4CF20003 		movw	r3, #:lower16:537509888
 1947 0008 C2F20903 		movt	r3, #:upper16:537509888
 1948 000c 4FF47F62 		mov	r2, #4080
 1949 0010 1A60     		str	r2, [r3, #0]
  24:../main.c     ****   LPC_GPIO3->FIODIR = 0xffffffff;
 1950              		.loc 1 24 0
 1951 0012 4CF26003 		movw	r3, #:lower16:537509984
 1952 0016 C2F20903 		movt	r3, #:upper16:537509984
 1953 001a 4FF0FF32 		mov	r2, #-1
 1954 001e 1A60     		str	r2, [r3, #0]
  25:../main.c     ****   LPC_GPIO4->FIODIR = 0xffffffff;
 1955              		.loc 1 25 0
 1956 0020 4CF28003 		movw	r3, #:lower16:537510016
 1957 0024 C2F20903 		movt	r3, #:upper16:537510016
 1958 0028 4FF0FF32 		mov	r2, #-1
 1959 002c 1A60     		str	r2, [r3, #0]
  26:../main.c     **** }
 1960              		.loc 1 26 0
 1961 002e BD46     		mov	sp, r7
 1962 0030 80BC     		pop	{r7}
 1963 0032 7047     		bx	lr
 1964              		.cfi_endproc
 1965              	.LFE29:
 1967              		.align	2
 1968              		.global	SSegWrite
 1969              		.thumb
 1970              		.thumb_func
 1972              	SSegWrite:
 1973              	.LFB30:
  27:../main.c     **** 
  28:../main.c     **** void SSegWrite(unsigned char number){
 1974              		.loc 1 28 0
 1975              		.cfi_startproc
 1976              		@ args = 0, pretend = 0, frame = 72
 1977              		@ frame_needed = 1, uses_anonymous_args = 0
 1978              		@ link register save eliminated.
 1979 0034 90B4     		push	{r4, r7}
 1980              	.LCFI2:
 1981              		.cfi_def_cfa_offset 8
 1982 0036 92B0     		sub	sp, sp, #72
 1983              	.LCFI3:
 1984              		.cfi_def_cfa_offset 80
 1985 0038 00AF     		add	r7, sp, #0
 1986              		.cfi_offset 7, -4
 1987              		.cfi_offset 4, -8
 1988              	.LCFI4:
 1989              		.cfi_def_cfa_register 7
 1990 003a 0346     		mov	r3, r0
 1991 003c FB71     		strb	r3, [r7, #7]
  29:../main.c     **** 	unsigned int SSegChar[] = {0xf3ff/*0*/,0xf06f/*1*/,0xf5bf/*2*/,0xf4ff/*3*/
  30:../main.c     **** 							  ,0xf66f/*4*/,0xf6Df/*5*/,0xf7cf/*6*/,0xf07f/*7*/
  31:../main.c     **** 							  ,0xf7ff/*8*/,0xf67f/*9*/,0xf77f/*A*/,0xf7cf/*B*/
  32:../main.c     **** 							  ,0xf39f/*C*/,0xf5ef/*D*/,0xf79f/*E*/,0xf71f/*F*/};
 1992              		.loc 1 32 0
 1993 003e 40F20003 		movw	r3, #:lower16:C.18.2469
 1994 0042 C0F20003 		movt	r3, #:upper16:C.18.2469
 1995 0046 07F1080C 		add	ip, r7, #8
 1996 004a 1C46     		mov	r4, r3
 1997 004c 0FCC     		ldmia	r4!, {r0, r1, r2, r3}
 1998 004e ACE80F00 		stmia	ip!, {r0, r1, r2, r3}
 1999 0052 0FCC     		ldmia	r4!, {r0, r1, r2, r3}
 2000 0054 ACE80F00 		stmia	ip!, {r0, r1, r2, r3}
 2001 0058 0FCC     		ldmia	r4!, {r0, r1, r2, r3}
 2002 005a ACE80F00 		stmia	ip!, {r0, r1, r2, r3}
 2003 005e 94E80F00 		ldmia	r4, {r0, r1, r2, r3}
 2004 0062 8CE80F00 		stmia	ip, {r0, r1, r2, r3}
  33:../main.c     **** 	LPC_GPIO0->FIOPINL =  (SSegChar[number]);
 2005              		.loc 1 33 0
 2006 0066 4CF20003 		movw	r3, #:lower16:537509888
 2007 006a C2F20903 		movt	r3, #:upper16:537509888
 2008 006e FA79     		ldrb	r2, [r7, #7]	@ zero_extendqisi2
 2009 0070 4FEA8202 		lsl	r2, r2, #2
 2010 0074 07F14801 		add	r1, r7, #72
 2011 0078 0A44     		add	r2, r2, r1
 2012 007a 52F8402C 		ldr	r2, [r2, #-64]
 2013 007e 92B2     		uxth	r2, r2
 2014 0080 9A82     		strh	r2, [r3, #20]	@ movhi
  34:../main.c     **** }
 2015              		.loc 1 34 0
 2016 0082 07F14807 		add	r7, r7, #72
 2017 0086 BD46     		mov	sp, r7
 2018 0088 90BC     		pop	{r4, r7}
 2019 008a 7047     		bx	lr
 2020              		.cfi_endproc
 2021              	.LFE30:
 2023              		.align	2
 2024              		.global	short_delay
 2025              		.thumb
 2026              		.thumb_func
 2028              	short_delay:
 2029              	.LFB31:
  35:../main.c     **** 
  36:../main.c     **** void short_delay(int n)
  37:../main.c     **** {
 2030              		.loc 1 37 0
 2031              		.cfi_startproc
 2032              		@ args = 0, pretend = 0, frame = 16
 2033              		@ frame_needed = 1, uses_anonymous_args = 0
 2034              		@ link register save eliminated.
 2035 008c 80B4     		push	{r7}
 2036              	.LCFI5:
 2037              		.cfi_def_cfa_offset 4
 2038 008e 85B0     		sub	sp, sp, #20
 2039              	.LCFI6:
 2040              		.cfi_def_cfa_offset 24
 2041 0090 00AF     		add	r7, sp, #0
 2042              		.cfi_offset 7, -4
 2043              	.LCFI7:
 2044              		.cfi_def_cfa_register 7
 2045 0092 7860     		str	r0, [r7, #4]
  38:../main.c     ****    volatile int d;
  39:../main.c     ****    for (d=0; d<n*3000; d++){}
 2046              		.loc 1 39 0
 2047 0094 4FF00003 		mov	r3, #0
 2048 0098 FB60     		str	r3, [r7, #12]
 2049 009a 03E0     		b	.L6
 2050              	.L7:
 2051 009c FB68     		ldr	r3, [r7, #12]
 2052 009e 03F10103 		add	r3, r3, #1
 2053 00a2 FB60     		str	r3, [r7, #12]
 2054              	.L6:
 2055 00a4 7B68     		ldr	r3, [r7, #4]
 2056 00a6 40F6B832 		movw	r2, #3000
 2057 00aa 02FB03F2 		mul	r2, r2, r3
 2058 00ae FB68     		ldr	r3, [r7, #12]
 2059 00b0 9A42     		cmp	r2, r3
 2060 00b2 F3DC     		bgt	.L7
  40:../main.c     **** }
 2061              		.loc 1 40 0
 2062 00b4 07F11407 		add	r7, r7, #20
 2063 00b8 BD46     		mov	sp, r7
 2064 00ba 80BC     		pop	{r7}
 2065 00bc 7047     		bx	lr
 2066              		.cfi_endproc
 2067              	.LFE31:
 2069 00be 00BF     		.align	2
 2070              		.global	main
 2071              		.thumb
 2072              		.thumb_func
 2074              	main:
 2075              	.LFB32:
  41:../main.c     **** 
  42:../main.c     **** // MAIN function
  43:../main.c     **** int main(void) {
 2076              		.loc 1 43 0
 2077              		.cfi_startproc
 2078              		@ args = 0, pretend = 0, frame = 8
 2079              		@ frame_needed = 1, uses_anonymous_args = 0
 2080 00c0 80B5     		push	{r7, lr}
 2081              	.LCFI8:
 2082              		.cfi_def_cfa_offset 8
 2083 00c2 82B0     		sub	sp, sp, #8
 2084              	.LCFI9:
 2085              		.cfi_def_cfa_offset 16
 2086 00c4 00AF     		add	r7, sp, #0
 2087              		.cfi_offset 14, -4
 2088              		.cfi_offset 7, -8
 2089              	.LCFI10:
 2090              		.cfi_def_cfa_register 7
  44:../main.c     **** 
  45:../main.c     **** 	// Declarando variáveis
  46:../main.c     **** 	unsigned char counter;
  47:../main.c     **** 	
  48:../main.c     **** 	// Set up board/processor
  49:../main.c     **** 	SystemInit();
 2091              		.loc 1 49 0
 2092 00c6 FFF7FEFF 		bl	SystemInit
  50:../main.c     **** 
  51:../main.c     **** 	// Configurando Display de Sete Segmentos... 
  52:../main.c     **** 	SSeg_Config();
 2093              		.loc 1 52 0
 2094 00ca FFF7FEFF 		bl	SSeg_Config
  53:../main.c     **** 
  54:../main.c     **** 	LPC_GPIO4->FIOPIN = 0xf0000000;
 2095              		.loc 1 54 0
 2096 00ce 4CF28003 		movw	r3, #:lower16:537510016
 2097 00d2 C2F20903 		movt	r3, #:upper16:537510016
 2098 00d6 4FF07042 		mov	r2, #-268435456
 2099 00da 5A61     		str	r2, [r3, #20]
  55:../main.c     **** 	LPC_GPIO3->FIOPIN = 0x0f000000;
 2100              		.loc 1 55 0
 2101 00dc 4CF26003 		movw	r3, #:lower16:537509984
 2102 00e0 C2F20903 		movt	r3, #:upper16:537509984
 2103 00e4 4FF07062 		mov	r2, #251658240
 2104 00e8 5A61     		str	r2, [r3, #20]
 2105              	.L12:
  56:../main.c     **** 
  57:../main.c     **** 	while(1)
  58:../main.c     **** 	{
  59:../main.c     **** 		for (counter = 0; counter < 16; counter++)
 2106              		.loc 1 59 0
 2107 00ea 4FF00003 		mov	r3, #0
 2108 00ee FB71     		strb	r3, [r7, #7]
 2109 00f0 0BE0     		b	.L10
 2110              	.L11:
  60:../main.c     ****       	{
  61:../main.c     ****       		SSegWrite(counter);
 2111              		.loc 1 61 0
 2112 00f2 FB79     		ldrb	r3, [r7, #7]	@ zero_extendqisi2
 2113 00f4 1846     		mov	r0, r3
 2114 00f6 FFF7FEFF 		bl	SSegWrite
  62:../main.c     **** 			short_delay(2000);
 2115              		.loc 1 62 0
 2116 00fa 4FF4FA60 		mov	r0, #2000
 2117 00fe FFF7FEFF 		bl	short_delay
 2118              		.loc 1 59 0
 2119 0102 FB79     		ldrb	r3, [r7, #7]
 2120 0104 03F10103 		add	r3, r3, #1
 2121 0108 FB71     		strb	r3, [r7, #7]
 2122              	.L10:
 2123 010a FB79     		ldrb	r3, [r7, #7]	@ zero_extendqisi2
 2124 010c 0F2B     		cmp	r3, #15
 2125 010e F0D9     		bls	.L11
  63:../main.c     **** 		}
  64:../main.c     **** 	}
 2126              		.loc 1 64 0
 2127 0110 EBE7     		b	.L12
 2128              		.cfi_endproc
 2129              	.LFE32:
 2131              		.section	.rodata
 2132              		.align	2
 2135              	C.18.2469:
 2136 0000 FFF30000 		.word	62463
 2137 0004 6FF00000 		.word	61551
 2138 0008 BFF50000 		.word	62911
 2139 000c FFF40000 		.word	62719
 2140 0010 6FF60000 		.word	63087
 2141 0014 DFF60000 		.word	63199
 2142 0018 CFF70000 		.word	63439
 2143 001c 7FF00000 		.word	61567
 2144 0020 FFF70000 		.word	63487
 2145 0024 7FF60000 		.word	63103
 2146 0028 7FF70000 		.word	63359
 2147 002c CFF70000 		.word	63439
 2148 0030 9FF30000 		.word	62367
 2149 0034 EFF50000 		.word	62959
 2150 0038 9FF70000 		.word	63391
 2151 003c 1FF70000 		.word	63263
 2152              		.text
 2153              	.Letext0: